; Function Attrs: nounwind uwtable
define range(i32 -50, 1) i32 @IDAQuadSensEEtolerances(ptr noundef captures(address_is_null) %0) local_unnamed_addr #0 {
  %2 = icmp eq ptr %0, null
  br i1 %2, label %3, label %4

3:                                                ; preds = %1
  tail call void (ptr, i32, i32, ptr, ptr, ptr, ...) @IDAProcessError(ptr noundef null, i32 noundef -20, i32 noundef 2191, ptr noundef nonnull @__func__.IDAQuadSensEEtolerances, ptr noundef nonnull @.str, ptr noundef nonnull @.str.3)
  br label %14

4:                                                ; preds = %1
  %5 = getelementptr inbounds nuw i8, ptr %0, i64 156
  %6 = load i32, ptr %5, align 4, !tbaa !45
  %.not = icmp eq i32 %6, 0
  br i1 %.not, label %7, label %8

7:                                                ; preds = %4
  tail call void (ptr, i32, i32, ptr, ptr, ptr, ...) @IDAProcessError(ptr noundef nonnull %0, i32 noundef -40, i32 noundef 2199, ptr noundef nonnull @__func__.IDAQuadSensEEtolerances, ptr noundef nonnull @.str, ptr noundef nonnull @.str.20)
  br label %14

8:                                                ; preds = %4
  %9 = getelementptr inbounds nuw i8, ptr %0, i64 1728
  %10 = load i32, ptr %9, align 8, !tbaa !198
  %.not8 = icmp eq i32 %10, 0
  br i1 %.not8, label %11, label %12

11:                                               ; preds = %8
  tail call void (ptr, i32, i32, ptr, ptr, ptr, ...) @IDAProcessError(ptr noundef nonnull %0, i32 noundef -50, i32 noundef 2207, ptr noundef nonnull @__func__.IDAQuadSensEEtolerances, ptr noundef nonnull @.str, ptr noundef nonnull @.str.26)
  br label %14

12:                                               ; preds = %8
  %13 = getelementptr inbounds nuw i8, ptr %0, i64 304
  store i32 4, ptr %13, align 8, !tbaa !60
  br label %14

14:                                               ; preds = %12, %11, %7, %3
  %.0 = phi i32 [ -20, %3 ], [ 0, %12 ], [ -50, %11 ], [ -40, %7 ]
  ret i32 %.0
}